; Function Attrs: mustprogress nofree norecurse nosync nounwind willreturn memory(argmem: readwrite) uwtable
define hidden void @_ZN17JvmtiEventEnabled11set_enabledE10jvmtiEventb(ptr nocapture noundef nonnull align 8 dereferenceable(8) %0, i32 noundef %1, i1 noundef zeroext %2) local_unnamed_addr #1 align 2 {
  %4 = load i64, ptr %0, align 8
  %5 = add nsw i32 %1, -47
  %6 = zext nneg i32 %5 to i64
  %7 = shl nuw i64 1, %6
  %8 = or i64 %4, %7
  %9 = xor i64 %7, -1
  %10 = and i64 %4, %9
  %.0 = select i1 %2, i64 %8, i64 %10
  store i64 %.0, ptr %0, align 8
  ret void
}